; ModuleID = '2/423.c'
source_filename = "2/423.c"
target datalayout = "e-m:e-p270:32:32-p271:32:32-p272:64:64-i64:64-f80:128-n8:16:32:64-S128"
target triple = "x86_64-pc-linux-gnu"

@.str = private unnamed_addr constant [6 x i8] c"%d %s\00", align 1
@a = common dso_local global [26 x [1000 x i32]] zeroinitializer, align 16
@ai = common dso_local global [26 x i32] zeroinitializer, align 16
@.str.1 = private unnamed_addr constant [3 x i8] c"%d\00", align 1
@.str.2 = private unnamed_addr constant [4 x i8] c"%c\0A\00", align 1
@.str.3 = private unnamed_addr constant [4 x i8] c"%d\0A\00", align 1

; Function Attrs: noinline nounwind uwtable
define dso_local void @func() #0 {
  %1 = alloca i32, align 4
  %2 = alloca i32, align 4
  %3 = alloca i32, align 4
  %4 = alloca [27 x i8], align 16
  %5 = getelementptr inbounds [27 x i8], [27 x i8]* %4, i64 0, i64 0
  %6 = call i32 (i8*, ...) @__isoc99_scanf(i8* getelementptr inbounds ([6 x i8], [6 x i8]* @.str, i64 0, i64 0), i32* %1, i8* %5)
  %7 = getelementptr inbounds [27 x i8], [27 x i8]* %4, i64 0, i64 0
  %8 = call i64 @strlen(i8* %7) #4
  %9 = trunc i64 %8 to i32
  store i32 %9, i32* %3, align 4
  store i32 0, i32* %2, align 4
  br label %10

10:                                               ; preds = %45, %0
  %11 = load i32, i32* %2, align 4
  %12 = load i32, i32* %3, align 4
  %13 = icmp slt i32 %11, %12
  br i1 %13, label %14, label %48

14:                                               ; preds = %10
  %15 = load i32, i32* %1, align 4
  %16 = load i32, i32* %2, align 4
  %17 = sext i32 %16 to i64
  %18 = getelementptr inbounds [27 x i8], [27 x i8]* %4, i64 0, i64 %17
  %19 = load i8, i8* %18, align 1
  %20 = sext i8 %19 to i32
  %21 = sub nsw i32 %20, 65
  %22 = sext i32 %21 to i64
  %23 = getelementptr inbounds [26 x [1000 x i32]], [26 x [1000 x i32]]* @a, i64 0, i64 %22
  %24 = load i32, i32* %2, align 4
  %25 = sext i32 %24 to i64
  %26 = getelementptr inbounds [27 x i8], [27 x i8]* %4, i64 0, i64 %25
  %27 = load i8, i8* %26, align 1
  %28 = sext i8 %27 to i32
  %29 = sub nsw i32 %28, 65
  %30 = sext i32 %29 to i64
  %31 = getelementptr inbounds [26 x i32], [26 x i32]* @ai, i64 0, i64 %30
  %32 = load i32, i32* %31, align 4
  %33 = sext i32 %32 to i64
  %34 = getelementptr inbounds [1000 x i32], [1000 x i32]* %23, i64 0, i64 %33
  store i32 %15, i32* %34, align 4
  %35 = load i32, i32* %2, align 4
  %36 = sext i32 %35 to i64
  %37 = getelementptr inbounds [27 x i8], [27 x i8]* %4, i64 0, i64 %36
  %38 = load i8, i8* %37, align 1
  %39 = sext i8 %38 to i32
  %40 = sub nsw i32 %39, 65
  %41 = sext i32 %40 to i64
  %42 = getelementptr inbounds [26 x i32], [26 x i32]* @ai, i64 0, i64 %41
  %43 = load i32, i32* %42, align 4
  %44 = add nsw i32 %43, 1
  store i32 %44, i32* %42, align 4
  br label %45

45:                                               ; preds = %14
  %46 = load i32, i32* %2, align 4
  %47 = add nsw i32 %46, 1
  store i32 %47, i32* %2, align 4
  br label %10

48:                                               ; preds = %10
  ret void
}

declare dso_local i32 @__isoc99_scanf(i8*, ...) #1

; Function Attrs: nounwind readonly
declare dso_local i64 @strlen(i8*) #2

; Function Attrs: noinline nounwind uwtable
define dso_local i32 @main() #0 {
  %1 = alloca i32, align 4
  %2 = alloca i32, align 4
  %3 = alloca i32, align 4
  %4 = alloca i32, align 4
  %5 = alloca i32, align 4
  store i32 0, i32* %1, align 4
  call void @llvm.memset.p0i8.i64(i8* align 16 bitcast ([26 x [1000 x i32]]* @a to i8*), i8 0, i64 104000, i1 false)
  call void @llvm.memset.p0i8.i64(i8* align 16 bitcast ([26 x i32]* @ai to i8*), i8 0, i64 104, i1 false)
  store i32 0, i32* %5, align 4
  %6 = call i32 (i8*, ...) @__isoc99_scanf(i8* getelementptr inbounds ([3 x i8], [3 x i8]* @.str.1, i64 0, i64 0), i32* %2)
  br label %7

7:                                                ; preds = %11, %0
  %8 = load i32, i32* %2, align 4
  %9 = add nsw i32 %8, -1
  store i32 %9, i32* %2, align 4
  %10 = icmp ne i32 %8, 0
  br i1 %10, label %11, label %12

11:                                               ; preds = %7
  call void @func()
  br label %7

12:                                               ; preds = %7
  store i32 0, i32* %3, align 4
  br label %13

13:                                               ; preds = %30, %12
  %14 = load i32, i32* %3, align 4
  %15 = icmp slt i32 %14, 26
  br i1 %15, label %16, label %33

16:                                               ; preds = %13
  %17 = load i32, i32* %3, align 4
  %18 = sext i32 %17 to i64
  %19 = getelementptr inbounds [26 x i32], [26 x i32]* @ai, i64 0, i64 %18
  %20 = load i32, i32* %19, align 4
  %21 = load i32, i32* %5, align 4
  %22 = icmp sgt i32 %20, %21
  br i1 %22, label %23, label %29

23:                                               ; preds = %16
  %24 = load i32, i32* %3, align 4
  %25 = sext i32 %24 to i64
  %26 = getelementptr inbounds [26 x i32], [26 x i32]* @ai, i64 0, i64 %25
  %27 = load i32, i32* %26, align 4
  store i32 %27, i32* %5, align 4
  %28 = load i32, i32* %3, align 4
  store i32 %28, i32* %4, align 4
  br label %29

29:                                               ; preds = %23, %16
  br label %30

30:                                               ; preds = %29
  %31 = load i32, i32* %3, align 4
  %32 = add nsw i32 %31, 1
  store i32 %32, i32* %3, align 4
  br label %13

33:                                               ; preds = %13
  %34 = load i32, i32* %4, align 4
  %35 = add nsw i32 %34, 65
  %36 = call i32 (i8*, ...) @printf(i8* getelementptr inbounds ([4 x i8], [4 x i8]* @.str.2, i64 0, i64 0), i32 %35)
  %37 = load i32, i32* %5, align 4
  %38 = call i32 (i8*, ...) @printf(i8* getelementptr inbounds ([4 x i8], [4 x i8]* @.str.3, i64 0, i64 0), i32 %37)
  store i32 0, i32* %3, align 4
  br label %39

39:                                               ; preds = %55, %33
  %40 = load i32, i32* %3, align 4
  %41 = load i32, i32* %4, align 4
  %42 = sext i32 %41 to i64
  %43 = getelementptr inbounds [26 x i32], [26 x i32]* @ai, i64 0, i64 %42
  %44 = load i32, i32* %43, align 4
  %45 = icmp slt i32 %40, %44
  br i1 %45, label %46, label %58

46:                                               ; preds = %39
  %47 = load i32, i32* %4, align 4
  %48 = sext i32 %47 to i64
  %49 = getelementptr inbounds [26 x [1000 x i32]], [26 x [1000 x i32]]* @a, i64 0, i64 %48
  %50 = load i32, i32* %3, align 4
  %51 = sext i32 %50 to i64
  %52 = getelementptr inbounds [1000 x i32], [1000 x i32]* %49, i64 0, i64 %51
  %53 = load i32, i32* %52, align 4
  %54 = call i32 (i8*, ...) @printf(i8* getelementptr inbounds ([4 x i8], [4 x i8]* @.str.3, i64 0, i64 0), i32 %53)
  br label %55

55:                                               ; preds = %46
  %56 = load i32, i32* %3, align 4
  %57 = add nsw i32 %56, 1
  store i32 %57, i32* %3, align 4
  br label %39

58:                                               ; preds = %39
  %59 = load i32, i32* %1, align 4
  ret i32 %59
}

; Function Attrs: argmemonly nounwind willreturn
declare void @llvm.memset.p0i8.i64(i8* nocapture writeonly, i8, i64, i1 immarg) #3

declare dso_local i32 @printf(i8*, ...) #1


!llvm.module.flags = !{!0}
!llvm.ident = !{!1}

!0 = !{i32 1, !"wchar_size", i32 4}
!1 = !{!"clang version 10.0.0-4ubuntu1 "}
